; Function Attrs: mustprogress nofree norecurse nosync nounwind willreturn memory(read, inaccessiblemem: none) uwtable
define hidden noundef i32 @_Z5none4PSt10shared_ptrI10NoneTesterE(ptr noundef readonly %0) #5 {
  %.not = icmp eq ptr %0, null
  br i1 %.not, label %6, label %2

2:                                                ; preds = %1
  %3 = load ptr, ptr %0, align 8
  %.not3 = icmp eq ptr %3, null
  br i1 %.not3, label %6, label %4

4:                                                ; preds = %2
  %5 = load i32, ptr %3, align 4
  br label %6

6:                                                ; preds = %1, %2, %4
  %7 = phi i32 [ %5, %4 ], [ -1, %2 ], [ -1, %1 ]
  ret i32 %7
}